target datalayout = "e-m:e-p270:32:32-p271:32:32-p272:64:64-i64:64-i128:128-f80:128-n8:16:32:64-S128"
target triple = "x86_64-pc-linux-gnu"

%struct.UConverter = type { ptr, ptr, ptr, ptr, ptr, ptr, ptr, i32, i8, i8, i8, i8, i8, [7 x i8], i32, i32, i32, i32, i8, i8, i8, i8, i8, i8, i8, i8, [8 x i8], [32 x i8], [2 x i16], [2 x i16], [32 x i16], i32, [19 x i16], [31 x i8], i8, i8, i8, i32 }
%struct.UConverterSharedData = type { i32, i32, ptr, ptr, i8, i8, ptr, i32, %struct.UConverterMBCSTable }
%struct.UConverterMBCSTable = type { i8, i8, i8, i32, ptr, ptr, ptr, ptr, ptr, ptr, [64 x i16], ptr, ptr, i32, i8, i8, i8, i16, i32, ptr, ptr, ptr, ptr }
%struct.UConverterToUnicodeArgs = type { i16, i8, ptr, ptr, ptr, ptr, ptr, ptr }

; Function Attrs: inlinehint mustprogress uwtable
define internal void @_ZL16ucnv_extWriteToUP10UConverterPKijPPDsPKDsPPiiP10UErrorCode(ptr noundef %0, ptr noundef %1, i32 noundef %2, ptr noundef %3, ptr noundef %4, ptr noundef %5, i32 noundef %6, ptr noundef %7) #2 {
  %9 = alloca ptr, align 8
  %10 = alloca ptr, align 8
  %11 = alloca i32, align 4
  %12 = alloca ptr, align 8
  %13 = alloca ptr, align 8
  %14 = alloca ptr, align 8
  %15 = alloca i32, align 4
  %16 = alloca ptr, align 8
  store ptr %0, ptr %9, align 8, !tbaa !3
  store ptr %1, ptr %10, align 8, !tbaa !8
  store i32 %2, ptr %11, align 4, !tbaa !10
  store ptr %3, ptr %12, align 8, !tbaa !17
  store ptr %4, ptr %13, align 8, !tbaa !19
  store ptr %5, ptr %14, align 8, !tbaa !21
  store i32 %6, ptr %15, align 4, !tbaa !10
  store ptr %7, ptr %16, align 8, !tbaa !24
  %17 = load i32, ptr %11, align 4, !tbaa !10
  %18 = icmp ule i32 %17, 3145727
  br i1 %18, label %19, label %28

19:                                               ; preds = %8
  %20 = load ptr, ptr %9, align 8, !tbaa !3
  %21 = load i32, ptr %11, align 4, !tbaa !10
  %22 = sub i32 %21, 2031616
  %23 = load ptr, ptr %12, align 8, !tbaa !17
  %24 = load ptr, ptr %13, align 8, !tbaa !19
  %25 = load ptr, ptr %14, align 8, !tbaa !21
  %26 = load i32, ptr %15, align 4, !tbaa !10
  %27 = load ptr, ptr %16, align 8, !tbaa !24
  call void @ucnv_toUWriteCodePoint_77(ptr noundef %20, i32 noundef %22, ptr noundef %23, ptr noundef %24, ptr noundef %25, i32 noundef %26, ptr noundef %27)
  br label %48

28:                                               ; preds = %8
  %29 = load ptr, ptr %9, align 8, !tbaa !3
  %30 = load ptr, ptr %10, align 8, !tbaa !8
  %31 = load ptr, ptr %10, align 8, !tbaa !8
  %32 = getelementptr inbounds nuw i32, ptr %31, i64 3
  %33 = load i32, ptr %32, align 4, !tbaa !10
  %34 = sext i32 %33 to i64
  %35 = getelementptr inbounds i8, ptr %30, i64 %34
  %36 = load i32, ptr %11, align 4, !tbaa !10
  %37 = and i32 %36, 262143
  %38 = zext i32 %37 to i64
  %39 = getelementptr inbounds nuw i16, ptr %35, i64 %38
  %40 = load i32, ptr %11, align 4, !tbaa !10
  %41 = lshr i32 %40, 18
  %42 = sub i32 %41, 12
  %43 = load ptr, ptr %12, align 8, !tbaa !17
  %44 = load ptr, ptr %13, align 8, !tbaa !19
  %45 = load ptr, ptr %14, align 8, !tbaa !21
  %46 = load i32, ptr %15, align 4, !tbaa !10
  %47 = load ptr, ptr %16, align 8, !tbaa !24
  call void @ucnv_toUWriteUChars_77(ptr noundef %29, ptr noundef %39, i32 noundef %42, ptr noundef %43, ptr noundef %44, ptr noundef %45, i32 noundef %46, ptr noundef %47)
  br label %48

48:                                               ; preds = %28, %19
  ret void
}

; Function Attrs: mustprogress uwtable
define void @ucnv_extContinueMatchToU_77(ptr noundef %0, ptr noundef %1, i32 noundef %2, ptr noundef %3) #0 {
  %5 = alloca ptr, align 8
  %6 = alloca ptr, align 8
  %7 = alloca i32, align 4
  %8 = alloca ptr, align 8
  %9 = alloca i32, align 4
  %10 = alloca i32, align 4
  %11 = alloca i32, align 4
  %12 = alloca ptr, align 8
  %13 = alloca i32, align 4
  store ptr %0, ptr %5, align 8, !tbaa !3
  store ptr %1, ptr %6, align 8, !tbaa !24
  store i32 %2, ptr %7, align 4, !tbaa !10
  store ptr %3, ptr %8, align 8, !tbaa !24
  call void @llvm.lifetime.start.p0(i64 4, ptr %9) #7
  store i32 0, ptr %9, align 4, !tbaa !10
  call void @llvm.lifetime.start.p0(i64 4, ptr %10) #7
  call void @llvm.lifetime.start.p0(i64 4, ptr %11) #7
  %14 = load ptr, ptr %5, align 8, !tbaa !3
  %15 = getelementptr inbounds nuw %struct.UConverter, ptr %14, i32 0, i32 6
  %16 = load ptr, ptr %15, align 8, !tbaa !25
  %17 = getelementptr inbounds nuw %struct.UConverterSharedData, ptr %16, i32 0, i32 8
  %18 = getelementptr inbounds nuw %struct.UConverterMBCSTable, ptr %17, i32 0, i32 22
  %19 = load ptr, ptr %18, align 8, !tbaa !44
  %20 = load ptr, ptr %5, align 8, !tbaa !3
  %21 = getelementptr inbounds nuw %struct.UConverter, ptr %20, i32 0, i32 6
  %22 = load ptr, ptr %21, align 8, !tbaa !25
  %23 = getelementptr inbounds nuw %struct.UConverterSharedData, ptr %22, i32 0, i32 8
  %24 = getelementptr inbounds nuw %struct.UConverterMBCSTable, ptr %23, i32 0, i32 14
  %25 = load i8, ptr %24, align 4, !tbaa !29
  %26 = zext i8 %25 to i32
  %27 = icmp eq i32 %26, 12
  br i1 %27, label %28, label %34

28:                                               ; preds = %4
  %29 = load ptr, ptr %5, align 8, !tbaa !3
  %30 = getelementptr inbounds nuw %struct.UConverter, ptr %29, i32 0, i32 15
  %31 = load i32, ptr %30, align 4, !tbaa !36
  %32 = trunc i32 %31 to i8
  %33 = sext i8 %32 to i32
  br label %44

34:                                               ; preds = %4
  %35 = load ptr, ptr %5, align 8, !tbaa !3
  %36 = getelementptr inbounds nuw %struct.UConverter, ptr %35, i32 0, i32 6
  %37 = load ptr, ptr %36, align 8, !tbaa !25
  %38 = getelementptr inbounds nuw %struct.UConverterSharedData, ptr %37, i32 0, i32 8
  %39 = getelementptr inbounds nuw %struct.UConverterMBCSTable, ptr %38, i32 0, i32 14
  %40 = load i8, ptr %39, align 4, !tbaa !29
  %41 = zext i8 %40 to i32
  %42 = icmp eq i32 %41, 219
  %43 = select i1 %42, i32 1, i32 -1
  br label %44

44:                                               ; preds = %34, %28
  %45 = phi i32 [ %33, %28 ], [ %43, %34 ]
  %46 = trunc i32 %45 to i8
  %47 = load ptr, ptr %5, align 8, !tbaa !3
  %48 = getelementptr inbounds nuw %struct.UConverter, ptr %47, i32 0, i32 33
  %49 = getelementptr inbounds [31 x i8], ptr %48, i64 0, i64 0
  %50 = load ptr, ptr %5, align 8, !tbaa !3
  %51 = getelementptr inbounds nuw %struct.UConverter, ptr %50, i32 0, i32 35
  %52 = load i8, ptr %51, align 2, !tbaa !42
  %53 = sext i8 %52 to i32
  %54 = load ptr, ptr %6, align 8, !tbaa !24
  %55 = getelementptr inbounds nuw %struct.UConverterToUnicodeArgs, ptr %54, i32 0, i32 3
  %56 = load ptr, ptr %55, align 8, !tbaa !45
  %57 = load ptr, ptr %6, align 8, !tbaa !24
  %58 = getelementptr inbounds nuw %struct.UConverterToUnicodeArgs, ptr %57, i32 0, i32 4
  %59 = load ptr, ptr %58, align 8, !tbaa !48
  %60 = load ptr, ptr %6, align 8, !tbaa !24
  %61 = getelementptr inbounds nuw %struct.UConverterToUnicodeArgs, ptr %60, i32 0, i32 3
  %62 = load ptr, ptr %61, align 8, !tbaa !45
  %63 = ptrtoint ptr %59 to i64
  %64 = ptrtoint ptr %62 to i64
  %65 = sub i64 %63, %64
  %66 = trunc i64 %65 to i32
  %67 = load ptr, ptr %5, align 8, !tbaa !3
  %68 = getelementptr inbounds nuw %struct.UConverter, ptr %67, i32 0, i32 11
  %69 = load i8, ptr %68, align 1, !tbaa !37
  %70 = load ptr, ptr %6, align 8, !tbaa !24
  %71 = getelementptr inbounds nuw %struct.UConverterToUnicodeArgs, ptr %70, i32 0, i32 1
  %72 = load i8, ptr %71, align 2, !tbaa !49
  %73 = call noundef i32 @_ZL16ucnv_extMatchToUPKiaPKciS2_iPjaa(ptr noundef %19, i8 noundef signext %46, ptr noundef %49, i32 noundef %53, ptr noundef %56, i32 noundef %66, ptr noundef %9, i8 noundef signext %69, i8 noundef signext %72)
  store i32 %73, ptr %10, align 4, !tbaa !10
  %74 = load i32, ptr %10, align 4, !tbaa !10
  %75 = icmp sgt i32 %74, 0
  br i1 %75, label %76, label %141

76:                                               ; preds = %44
  %77 = load i32, ptr %10, align 4, !tbaa !10
  %78 = load ptr, ptr %5, align 8, !tbaa !3
  %79 = getelementptr inbounds nuw %struct.UConverter, ptr %78, i32 0, i32 35
  %80 = load i8, ptr %79, align 2, !tbaa !42
  %81 = sext i8 %80 to i32
  %82 = icmp sge i32 %77, %81
  br i1 %82, label %83, label %97

83:                                               ; preds = %76
  %84 = load i32, ptr %10, align 4, !tbaa !10
  %85 = load ptr, ptr %5, align 8, !tbaa !3
  %86 = getelementptr inbounds nuw %struct.UConverter, ptr %85, i32 0, i32 35
  %87 = load i8, ptr %86, align 2, !tbaa !42
  %88 = sext i8 %87 to i32
  %89 = sub nsw i32 %84, %88
  %90 = load ptr, ptr %6, align 8, !tbaa !24
  %91 = getelementptr inbounds nuw %struct.UConverterToUnicodeArgs, ptr %90, i32 0, i32 3
  %92 = load ptr, ptr %91, align 8, !tbaa !45
  %93 = sext i32 %89 to i64
  %94 = getelementptr inbounds i8, ptr %92, i64 %93
  store ptr %94, ptr %91, align 8, !tbaa !45
  %95 = load ptr, ptr %5, align 8, !tbaa !3
  %96 = getelementptr inbounds nuw %struct.UConverter, ptr %95, i32 0, i32 35
  store i8 0, ptr %96, align 2, !tbaa !42
  br label %123

97:                                               ; preds = %76
  %98 = load ptr, ptr %5, align 8, !tbaa !3
  %99 = getelementptr inbounds nuw %struct.UConverter, ptr %98, i32 0, i32 35
  %100 = load i8, ptr %99, align 2, !tbaa !42
  %101 = sext i8 %100 to i32
  %102 = load i32, ptr %10, align 4, !tbaa !10
  %103 = sub nsw i32 %101, %102
  store i32 %103, ptr %11, align 4, !tbaa !10
  br label %104

104:                                              ; preds = %97
  %105 = load ptr, ptr %5, align 8, !tbaa !3
  %106 = getelementptr inbounds nuw %struct.UConverter, ptr %105, i32 0, i32 33
  %107 = getelementptr inbounds [31 x i8], ptr %106, i64 0, i64 0
  %108 = load ptr, ptr %5, align 8, !tbaa !3
  %109 = getelementptr inbounds nuw %struct.UConverter, ptr %108, i32 0, i32 33
  %110 = getelementptr inbounds [31 x i8], ptr %109, i64 0, i64 0
  %111 = load i32, ptr %10, align 4, !tbaa !10
  %112 = sext i32 %111 to i64
  %113 = getelementptr inbounds i8, ptr %110, i64 %112
  %114 = load i32, ptr %11, align 4, !tbaa !10
  %115 = sext i32 %114 to i64
  call void @llvm.memmove.p0.p0.i64(ptr align 2 %107, ptr align 1 %113, i64 %115, i1 false)
  br label %116

116:                                              ; preds = %104
  br label %117

117:                                              ; preds = %116
  %118 = load i32, ptr %11, align 4, !tbaa !10
  %119 = sub nsw i32 0, %118
  %120 = trunc i32 %119 to i8
  %121 = load ptr, ptr %5, align 8, !tbaa !3
  %122 = getelementptr inbounds nuw %struct.UConverter, ptr %121, i32 0, i32 35
  store i8 %120, ptr %122, align 2, !tbaa !42
  br label %123

123:                                              ; preds = %117, %83
  %124 = load ptr, ptr %5, align 8, !tbaa !3
  %125 = load ptr, ptr %5, align 8, !tbaa !3
  %126 = getelementptr inbounds nuw %struct.UConverter, ptr %125, i32 0, i32 6
  %127 = load ptr, ptr %126, align 8, !tbaa !25
  %128 = getelementptr inbounds nuw %struct.UConverterSharedData, ptr %127, i32 0, i32 8
  %129 = getelementptr inbounds nuw %struct.UConverterMBCSTable, ptr %128, i32 0, i32 22
  %130 = load ptr, ptr %129, align 8, !tbaa !44
  %131 = load i32, ptr %9, align 4, !tbaa !10
  %132 = load ptr, ptr %6, align 8, !tbaa !24
  %133 = getelementptr inbounds nuw %struct.UConverterToUnicodeArgs, ptr %132, i32 0, i32 5
  %134 = load ptr, ptr %6, align 8, !tbaa !24
  %135 = getelementptr inbounds nuw %struct.UConverterToUnicodeArgs, ptr %134, i32 0, i32 6
  %136 = load ptr, ptr %135, align 8, !tbaa !50
  %137 = load ptr, ptr %6, align 8, !tbaa !24
  %138 = getelementptr inbounds nuw %struct.UConverterToUnicodeArgs, ptr %137, i32 0, i32 7
  %139 = load i32, ptr %7, align 4, !tbaa !10
  %140 = load ptr, ptr %8, align 8, !tbaa !24
  call void @_ZL16ucnv_extWriteToUP10UConverterPKijPPDsPKDsPPiiP10UErrorCode(ptr noundef %124, ptr noundef %130, i32 noundef %131, ptr noundef %133, ptr noundef %136, ptr noundef %138, i32 noundef %139, ptr noundef %140)
  br label %234

141:                                              ; preds = %44
  %142 = load i32, ptr %10, align 4, !tbaa !10
  %143 = icmp slt i32 %142, 0
  br i1 %143, label %144, label %178

144:                                              ; preds = %141
  call void @llvm.lifetime.start.p0(i64 8, ptr %12) #7
  call void @llvm.lifetime.start.p0(i64 4, ptr %13) #7
  %145 = load ptr, ptr %6, align 8, !tbaa !24
  %146 = getelementptr inbounds nuw %struct.UConverterToUnicodeArgs, ptr %145, i32 0, i32 3
  %147 = load ptr, ptr %146, align 8, !tbaa !45
  store ptr %147, ptr %12, align 8, !tbaa !15
  %148 = load i32, ptr %10, align 4, !tbaa !10
  %149 = sub nsw i32 0, %148
  store i32 %149, ptr %10, align 4, !tbaa !10
  %150 = load ptr, ptr %5, align 8, !tbaa !3
  %151 = getelementptr inbounds nuw %struct.UConverter, ptr %150, i32 0, i32 35
  %152 = load i8, ptr %151, align 2, !tbaa !42
  %153 = sext i8 %152 to i32
  store i32 %153, ptr %13, align 4, !tbaa !10
  br label %154

154:                                              ; preds = %167, %144
  %155 = load i32, ptr %13, align 4, !tbaa !10
  %156 = load i32, ptr %10, align 4, !tbaa !10
  %157 = icmp slt i32 %155, %156
  br i1 %157, label %158, label %170

158:                                              ; preds = %154
  %159 = load ptr, ptr %12, align 8, !tbaa !15
  %160 = getelementptr inbounds nuw i8, ptr %159, i32 1
  store ptr %160, ptr %12, align 8, !tbaa !15
  %161 = load i8, ptr %159, align 1, !tbaa !23
  %162 = load ptr, ptr %5, align 8, !tbaa !3
  %163 = getelementptr inbounds nuw %struct.UConverter, ptr %162, i32 0, i32 33
  %164 = load i32, ptr %13, align 4, !tbaa !10
  %165 = sext i32 %164 to i64
  %166 = getelementptr inbounds [31 x i8], ptr %163, i64 0, i64 %165
  store i8 %161, ptr %166, align 1, !tbaa !23
  br label %167

167:                                              ; preds = %158
  %168 = load i32, ptr %13, align 4, !tbaa !10
  %169 = add nsw i32 %168, 1
  store i32 %169, ptr %13, align 4, !tbaa !10
  br label %154, !llvm.loop !51

170:                                              ; preds = %154
  %171 = load ptr, ptr %12, align 8, !tbaa !15
  %172 = load ptr, ptr %6, align 8, !tbaa !24
  %173 = getelementptr inbounds nuw %struct.UConverterToUnicodeArgs, ptr %172, i32 0, i32 3
  store ptr %171, ptr %173, align 8, !tbaa !45
  %174 = load i32, ptr %10, align 4, !tbaa !10
  %175 = trunc i32 %174 to i8
  %176 = load ptr, ptr %5, align 8, !tbaa !3
  %177 = getelementptr inbounds nuw %struct.UConverter, ptr %176, i32 0, i32 35
  store i8 %175, ptr %177, align 2, !tbaa !42
  call void @llvm.lifetime.end.p0(i64 4, ptr %13) #7
  call void @llvm.lifetime.end.p0(i64 8, ptr %12) #7
  br label %233

178:                                              ; preds = %141
  br label %179

179:                                              ; preds = %178
  %180 = load ptr, ptr %5, align 8, !tbaa !3
  %181 = getelementptr inbounds nuw %struct.UConverter, ptr %180, i32 0, i32 13
  %182 = getelementptr inbounds [7 x i8], ptr %181, i64 0, i64 0
  %183 = load ptr, ptr %5, align 8, !tbaa !3
  %184 = getelementptr inbounds nuw %struct.UConverter, ptr %183, i32 0, i32 33
  %185 = getelementptr inbounds [31 x i8], ptr %184, i64 0, i64 0
  %186 = load ptr, ptr %5, align 8, !tbaa !3
  %187 = getelementptr inbounds nuw %struct.UConverter, ptr %186, i32 0, i32 36
  %188 = load i8, ptr %187, align 1, !tbaa !38
  %189 = sext i8 %188 to i64
  call void @llvm.memcpy.p0.p0.i64(ptr align 1 %182, ptr align 2 %185, i64 %189, i1 false)
  br label %190

190:                                              ; preds = %179
  br label %191

191:                                              ; preds = %190
  %192 = load ptr, ptr %5, align 8, !tbaa !3
  %193 = getelementptr inbounds nuw %struct.UConverter, ptr %192, i32 0, i32 36
  %194 = load i8, ptr %193, align 1, !tbaa !38
  %195 = load ptr, ptr %5, align 8, !tbaa !3
  %196 = getelementptr inbounds nuw %struct.UConverter, ptr %195, i32 0, i32 12
  store i8 %194, ptr %196, align 8, !tbaa !52
  %197 = load ptr, ptr %5, align 8, !tbaa !3
  %198 = getelementptr inbounds nuw %struct.UConverter, ptr %197, i32 0, i32 35
  %199 = load i8, ptr %198, align 2, !tbaa !42
  %200 = sext i8 %199 to i32
  %201 = load ptr, ptr %5, align 8, !tbaa !3
  %202 = getelementptr inbounds nuw %struct.UConverter, ptr %201, i32 0, i32 36
  %203 = load i8, ptr %202, align 1, !tbaa !38
  %204 = sext i8 %203 to i32
  %205 = sub nsw i32 %200, %204
  store i32 %205, ptr %11, align 4, !tbaa !10
  %206 = load i32, ptr %11, align 4, !tbaa !10
  %207 = icmp sgt i32 %206, 0
  br i1 %207, label %208, label %226

208:                                              ; preds = %191
  br label %209

209:                                              ; preds = %208
  %210 = load ptr, ptr %5, align 8, !tbaa !3
  %211 = getelementptr inbounds nuw %struct.UConverter, ptr %210, i32 0, i32 33
  %212 = getelementptr inbounds [31 x i8], ptr %211, i64 0, i64 0
  %213 = load ptr, ptr %5, align 8, !tbaa !3
  %214 = getelementptr inbounds nuw %struct.UConverter, ptr %213, i32 0, i32 33
  %215 = getelementptr inbounds [31 x i8], ptr %214, i64 0, i64 0
  %216 = load ptr, ptr %5, align 8, !tbaa !3
  %217 = getelementptr inbounds nuw %struct.UConverter, ptr %216, i32 0, i32 36
  %218 = load i8, ptr %217, align 1, !tbaa !38
  %219 = sext i8 %218 to i32
  %220 = sext i32 %219 to i64
  %221 = getelementptr inbounds i8, ptr %215, i64 %220
  %222 = load i32, ptr %11, align 4, !tbaa !10
  %223 = sext i32 %222 to i64
  call void @llvm.memmove.p0.p0.i64(ptr align 2 %212, ptr align 1 %221, i64 %223, i1 false)
  br label %224

224:                                              ; preds = %209
  br label %225

225:                                              ; preds = %224
  br label %226

226:                                              ; preds = %225, %191
  %227 = load i32, ptr %11, align 4, !tbaa !10
  %228 = sub nsw i32 0, %227
  %229 = trunc i32 %228 to i8
  %230 = load ptr, ptr %5, align 8, !tbaa !3
  %231 = getelementptr inbounds nuw %struct.UConverter, ptr %230, i32 0, i32 35
  store i8 %229, ptr %231, align 2, !tbaa !42
  %232 = load ptr, ptr %8, align 8, !tbaa !24
  store i32 10, ptr %232, align 4, !tbaa !53
  br label %233

233:                                              ; preds = %226, %170
  br label %234

234:                                              ; preds = %233, %123
  call void @llvm.lifetime.end.p0(i64 4, ptr %11) #7
  call void @llvm.lifetime.end.p0(i64 4, ptr %10) #7
  call void @llvm.lifetime.end.p0(i64 4, ptr %9) #7
  ret void
}