; Function Attrs: mustprogress uwtable
define void @ucnv_extContinueMatchToU_77(ptr noundef %0, ptr noundef %1, i32 noundef %2, ptr noundef %3) local_unnamed_addr #0 {
  %5 = alloca i32, align 4
  call void @llvm.lifetime.start.p0(i64 4, ptr nonnull %5) #7
  store i32 0, ptr %5, align 4, !tbaa !3
  %6 = getelementptr inbounds nuw i8, ptr %0, i64 48
  %7 = load ptr, ptr %6, align 8, !tbaa !7
  %8 = getelementptr inbounds nuw i8, ptr %7, i64 288
  %9 = load ptr, ptr %8, align 8, !tbaa !31
  %10 = getelementptr inbounds nuw i8, ptr %7, i64 252
  %11 = load i8, ptr %10, align 4, !tbaa !13
  %12 = icmp eq i8 %11, 12
  br i1 %12, label %13, label %17

13:                                               ; preds = %4
  %14 = getelementptr inbounds nuw i8, ptr %0, i64 76
  %15 = load i32, ptr %14, align 4, !tbaa !21
  %sext = shl i32 %15, 24
  %16 = ashr exact i32 %sext, 24
  br label %20

17:                                               ; preds = %4
  %18 = icmp eq i8 %11, -37
  %19 = select i1 %18, i32 1, i32 -1
  br label %20

20:                                               ; preds = %17, %13
  %21 = phi i32 [ %16, %13 ], [ %19, %17 ]
  %22 = trunc nsw i32 %21 to i8
  %23 = getelementptr inbounds nuw i8, ptr %0, i64 250
  %24 = getelementptr inbounds nuw i8, ptr %0, i64 282
  %25 = load i8, ptr %24, align 2, !tbaa !28
  %26 = sext i8 %25 to i32
  %27 = getelementptr inbounds nuw i8, ptr %1, i64 16
  %28 = load ptr, ptr %27, align 8, !tbaa !32
  %29 = getelementptr inbounds nuw i8, ptr %1, i64 24
  %30 = load ptr, ptr %29, align 8, !tbaa !37
  %31 = ptrtoint ptr %30 to i64
  %32 = ptrtoint ptr %28 to i64
  %33 = sub i64 %31, %32
  %34 = trunc i64 %33 to i32
  %35 = getelementptr inbounds nuw i8, ptr %1, i64 2
  %36 = load i8, ptr %35, align 2, !tbaa !38
  %37 = call fastcc noundef i32 @_ZL16ucnv_extMatchToUPKiaPKciS2_iPjaa(ptr noundef %9, i8 noundef signext %22, ptr noundef nonnull %23, i32 noundef %26, ptr noundef %28, i32 noundef %34, ptr noundef %5, i8 noundef signext %36)
  %38 = icmp sgt i32 %37, 0
  br i1 %38, label %39, label %71

39:                                               ; preds = %20
  %.not = icmp slt i32 %37, %26
  br i1 %.not, label %44, label %40

40:                                               ; preds = %39
  %41 = sub nsw i32 %37, %26
  %42 = sext i32 %41 to i64
  %43 = getelementptr inbounds i8, ptr %28, i64 %42
  store ptr %43, ptr %27, align 8, !tbaa !32
  br label %51

44:                                               ; preds = %39
  %45 = sub nsw i32 %26, %37
  %46 = zext nneg i32 %37 to i64
  %47 = getelementptr inbounds nuw i8, ptr %23, i64 %46
  %48 = sext i32 %45 to i64
  tail call void @llvm.memmove.p0.p0.i64(ptr nonnull align 2 %23, ptr nonnull align 1 %47, i64 %48, i1 false)
  %49 = trunc i32 %45 to i8
  %50 = sub nsw i8 0, %49
  br label %51

51:                                               ; preds = %44, %40
  %storemerge = phi i8 [ %50, %44 ], [ 0, %40 ]
  store i8 %storemerge, ptr %24, align 2, !tbaa !28
  %52 = load i32, ptr %5, align 4, !tbaa !3
  %53 = getelementptr inbounds nuw i8, ptr %1, i64 32
  %54 = getelementptr inbounds nuw i8, ptr %1, i64 40
  %55 = load ptr, ptr %54, align 8, !tbaa !39
  %56 = getelementptr inbounds nuw i8, ptr %1, i64 48
  %57 = icmp ult i32 %52, 3145728
  br i1 %57, label %58, label %60

58:                                               ; preds = %51
  %59 = add nsw i32 %52, -2031616
  tail call void @ucnv_toUWriteCodePoint_77(ptr noundef nonnull %0, i32 noundef %59, ptr noundef nonnull %53, ptr noundef %55, ptr noundef nonnull %56, i32 noundef %2, ptr noundef %3)
  br label %_ZL16ucnv_extWriteToUP10UConverterPKijPPDsPKDsPPiiP10UErrorCode.exit

60:                                               ; preds = %51
  %61 = load ptr, ptr %8, align 8, !tbaa !31
  %62 = getelementptr inbounds nuw i8, ptr %61, i64 12
  %63 = load i32, ptr %62, align 4, !tbaa !3
  %64 = sext i32 %63 to i64
  %65 = getelementptr inbounds i8, ptr %61, i64 %64
  %66 = and i32 %52, 262143
  %67 = zext nneg i32 %66 to i64
  %68 = getelementptr inbounds nuw i16, ptr %65, i64 %67
  %69 = lshr i32 %52, 18
  %70 = add nsw i32 %69, -12
  tail call void @ucnv_toUWriteUChars_77(ptr noundef nonnull %0, ptr noundef %68, i32 noundef %70, ptr noundef nonnull %53, ptr noundef %55, ptr noundef nonnull %56, i32 noundef %2, ptr noundef %3)
  br label %_ZL16ucnv_extWriteToUP10UConverterPKijPPDsPKDsPPiiP10UErrorCode.exit

71:                                               ; preds = %20
  %72 = icmp slt i32 %37, 0
  br i1 %72, label %73, label %81

73:                                               ; preds = %71
  %74 = sub nsw i32 0, %37
  %75 = icmp slt i32 %26, %74
  br i1 %75, label %.lr.ph.preheader, label %._crit_edge

.lr.ph.preheader:                                 ; preds = %73
  %76 = sext i8 %25 to i64
  %wide.trip.count = zext nneg i32 %74 to i64
  br label %.lr.ph

.lr.ph:                                           ; preds = %.lr.ph.preheader, %.lr.ph
  %indvars.iv = phi i64 [ %76, %.lr.ph.preheader ], [ %indvars.iv.next, %.lr.ph ]
  %.06167 = phi ptr [ %28, %.lr.ph.preheader ], [ %77, %.lr.ph ]
  %77 = getelementptr inbounds nuw i8, ptr %.06167, i64 1
  %78 = load i8, ptr %.06167, align 1, !tbaa !24
  %79 = getelementptr inbounds [31 x i8], ptr %23, i64 0, i64 %indvars.iv
  store i8 %78, ptr %79, align 1, !tbaa !24
  %indvars.iv.next = add nsw i64 %indvars.iv, 1
  %exitcond.not = icmp eq i64 %indvars.iv.next, %wide.trip.count
  br i1 %exitcond.not, label %._crit_edge, label %.lr.ph, !llvm.loop !40

._crit_edge:                                      ; preds = %.lr.ph, %73
  %.061.lcssa = phi ptr [ %28, %73 ], [ %77, %.lr.ph ]
  store ptr %.061.lcssa, ptr %27, align 8, !tbaa !32
  %80 = trunc i32 %74 to i8
  store i8 %80, ptr %24, align 2, !tbaa !28
  br label %_ZL16ucnv_extWriteToUP10UConverterPKijPPDsPKDsPPiiP10UErrorCode.exit

81:                                               ; preds = %71
  %82 = getelementptr inbounds nuw i8, ptr %0, i64 65
  %83 = getelementptr inbounds nuw i8, ptr %0, i64 283
  %84 = load i8, ptr %83, align 1, !tbaa !23
  %85 = sext i8 %84 to i64
  tail call void @llvm.memcpy.p0.p0.i64(ptr nonnull align 1 %82, ptr nonnull align 2 %23, i64 %85, i1 false)
  %86 = load i8, ptr %83, align 1, !tbaa !23
  %87 = getelementptr inbounds nuw i8, ptr %0, i64 64
  store i8 %86, ptr %87, align 8, !tbaa !41
  %88 = load i8, ptr %24, align 2, !tbaa !28
  %89 = sext i8 %88 to i32
  %90 = sext i8 %86 to i32
  %91 = sub nsw i32 %89, %90
  %92 = icmp sgt i32 %91, 0
  br i1 %92, label %93, label %97

93:                                               ; preds = %81
  %94 = sext i8 %86 to i64
  %95 = getelementptr inbounds i8, ptr %23, i64 %94
  %96 = zext nneg i32 %91 to i64
  tail call void @llvm.memmove.p0.p0.i64(ptr nonnull align 2 %23, ptr nonnull align 1 %95, i64 %96, i1 false)
  br label %97

97:                                               ; preds = %93, %81
  %98 = trunc i32 %91 to i8
  %99 = sub i8 0, %98
  store i8 %99, ptr %24, align 2, !tbaa !28
  store i32 10, ptr %3, align 4, !tbaa !42
  br label %_ZL16ucnv_extWriteToUP10UConverterPKijPPDsPKDsPPiiP10UErrorCode.exit

_ZL16ucnv_extWriteToUP10UConverterPKijPPDsPKDsPPiiP10UErrorCode.exit: ; preds = %60, %58, %._crit_edge, %97
  call void @llvm.lifetime.end.p0(i64 4, ptr nonnull %5) #7
  ret void
}